target datalayout = "e-m:e-p270:32:32-p271:32:32-p272:64:64-i64:64-i128:128-f80:128-n8:16:32:64-S128"
target triple = "x86_64-pc-linux-gnu"

%struct.gcm_funcs_st = type { ptr, ptr, ptr }
%struct.gcm128_context = type { %union.anon, %union.anon, %union.anon, %union.anon, %union.anon, %union.anon, [16 x %struct.u128], %struct.gcm_funcs_st, i32, i32, ptr, ptr, [48 x i8] }
%union.anon = type { [2 x i64] }
%struct.u128 = type { i64, i64 }

@OPENSSL_ia32cap_P = external global [0 x i32], align 4

; Function Attrs: nounwind uwtable
define internal void @gcm_get_funcs(ptr noundef %0) #0 {
  %2 = alloca ptr, align 8
  store ptr %0, ptr %2, align 8, !tbaa !11
  %3 = load ptr, ptr %2, align 8, !tbaa !11
  %4 = getelementptr inbounds nuw %struct.gcm_funcs_st, ptr %3, i32 0, i32 0
  store ptr @gcm_init_4bit, ptr %4, align 8, !tbaa !9
  %5 = load ptr, ptr %2, align 8, !tbaa !11
  %6 = getelementptr inbounds nuw %struct.gcm_funcs_st, ptr %5, i32 0, i32 2
  store ptr null, ptr %6, align 8, !tbaa !13
  %7 = load ptr, ptr %2, align 8, !tbaa !11
  %8 = getelementptr inbounds nuw %struct.gcm_funcs_st, ptr %7, i32 0, i32 1
  store ptr null, ptr %8, align 8, !tbaa !14
  %9 = load i32, ptr getelementptr inbounds ([0 x i32], ptr @OPENSSL_ia32cap_P, i64 0, i64 1), align 4, !tbaa !15
  %10 = and i32 %9, 2
  %11 = icmp ne i32 %10, 0
  br i1 %11, label %12, label %32

12:                                               ; preds = %1
  %13 = load i32, ptr getelementptr inbounds ([0 x i32], ptr @OPENSSL_ia32cap_P, i64 0, i64 1), align 4, !tbaa !15
  %14 = lshr i32 %13, 22
  %15 = and i32 %14, 65
  %16 = icmp eq i32 %15, 65
  br i1 %16, label %17, label %24

17:                                               ; preds = %12
  %18 = load ptr, ptr %2, align 8, !tbaa !11
  %19 = getelementptr inbounds nuw %struct.gcm_funcs_st, ptr %18, i32 0, i32 0
  store ptr @gcm_init_avx, ptr %19, align 8, !tbaa !9
  %20 = load ptr, ptr %2, align 8, !tbaa !11
  %21 = getelementptr inbounds nuw %struct.gcm_funcs_st, ptr %20, i32 0, i32 2
  store ptr @gcm_gmult_avx, ptr %21, align 8, !tbaa !13
  %22 = load ptr, ptr %2, align 8, !tbaa !11
  %23 = getelementptr inbounds nuw %struct.gcm_funcs_st, ptr %22, i32 0, i32 1
  store ptr @gcm_ghash_avx, ptr %23, align 8, !tbaa !14
  br label %31

24:                                               ; preds = %12
  %25 = load ptr, ptr %2, align 8, !tbaa !11
  %26 = getelementptr inbounds nuw %struct.gcm_funcs_st, ptr %25, i32 0, i32 0
  store ptr @gcm_init_clmul, ptr %26, align 8, !tbaa !9
  %27 = load ptr, ptr %2, align 8, !tbaa !11
  %28 = getelementptr inbounds nuw %struct.gcm_funcs_st, ptr %27, i32 0, i32 2
  store ptr @gcm_gmult_clmul, ptr %28, align 8, !tbaa !13
  %29 = load ptr, ptr %2, align 8, !tbaa !11
  %30 = getelementptr inbounds nuw %struct.gcm_funcs_st, ptr %29, i32 0, i32 1
  store ptr @gcm_ghash_clmul, ptr %30, align 8, !tbaa !14
  br label %31

31:                                               ; preds = %24, %17
  br label %37

32:                                               ; preds = %1
  %33 = load ptr, ptr %2, align 8, !tbaa !11
  %34 = getelementptr inbounds nuw %struct.gcm_funcs_st, ptr %33, i32 0, i32 2
  store ptr @gcm_gmult_4bit, ptr %34, align 8, !tbaa !13
  %35 = load ptr, ptr %2, align 8, !tbaa !11
  %36 = getelementptr inbounds nuw %struct.gcm_funcs_st, ptr %35, i32 0, i32 1
  store ptr @gcm_ghash_4bit, ptr %36, align 8, !tbaa !14
  br label %37

37:                                               ; preds = %32, %31
  ret void
}

; Function Attrs: nounwind uwtable
define void @CRYPTO_gcm128_init(ptr noundef %0, ptr noundef %1, ptr noundef %2) #0 {
  %4 = alloca ptr, align 8
  %5 = alloca ptr, align 8
  %6 = alloca ptr, align 8
  %7 = alloca i32, align 4
  %8 = alloca i64, align 8
  %9 = alloca i64, align 8
  %10 = alloca i64, align 8
  %11 = alloca i64, align 8
  store ptr %0, ptr %4, align 8, !tbaa !25
  store ptr %1, ptr %5, align 8, !tbaa !3
  store ptr %2, ptr %6, align 8, !tbaa !3
  call void @llvm.lifetime.start.p0(i64 4, ptr %7) #5
  store i32 1, ptr %7, align 4, !tbaa !15
  %12 = load ptr, ptr %4, align 8, !tbaa !25
  call void @llvm.memset.p0.i64(ptr align 8 %12, i8 0, i64 448, i1 false)
  %13 = load ptr, ptr %6, align 8, !tbaa !3
  %14 = load ptr, ptr %4, align 8, !tbaa !25
  %15 = getelementptr inbounds nuw %struct.gcm128_context, ptr %14, i32 0, i32 10
  store ptr %13, ptr %15, align 8, !tbaa !27
  %16 = load ptr, ptr %5, align 8, !tbaa !3
  %17 = load ptr, ptr %4, align 8, !tbaa !25
  %18 = getelementptr inbounds nuw %struct.gcm128_context, ptr %17, i32 0, i32 11
  store ptr %16, ptr %18, align 8, !tbaa !29
  %19 = load ptr, ptr %6, align 8, !tbaa !3
  %20 = load ptr, ptr %4, align 8, !tbaa !25
  %21 = getelementptr inbounds nuw %struct.gcm128_context, ptr %20, i32 0, i32 5
  %22 = getelementptr inbounds [16 x i8], ptr %21, i64 0, i64 0
  %23 = load ptr, ptr %4, align 8, !tbaa !25
  %24 = getelementptr inbounds nuw %struct.gcm128_context, ptr %23, i32 0, i32 5
  %25 = getelementptr inbounds [16 x i8], ptr %24, i64 0, i64 0
  %26 = load ptr, ptr %5, align 8, !tbaa !3
  call void %19(ptr noundef %22, ptr noundef %25, ptr noundef %26)
  call void @llvm.lifetime.start.p0(i64 8, ptr %8) #5
  %27 = load ptr, ptr %4, align 8, !tbaa !25
  %28 = getelementptr inbounds nuw %struct.gcm128_context, ptr %27, i32 0, i32 5
  %29 = getelementptr inbounds [2 x i64], ptr %28, i64 0, i64 0
  %30 = load i64, ptr %29, align 8, !tbaa !30
  store i64 %30, ptr %8, align 8, !tbaa !21
  %31 = load i64, ptr %8, align 8, !tbaa !21
  %32 = call i64 asm "bswapq $0", "=r,0,~{dirflag},~{fpsr},~{flags}"(i64 %31) #6, !srcloc !31
  store i64 %32, ptr %8, align 8, !tbaa !21
  %33 = load i64, ptr %8, align 8, !tbaa !21
  store i64 %33, ptr %9, align 8, !tbaa !21
  call void @llvm.lifetime.end.p0(i64 8, ptr %8) #5
  %34 = load i64, ptr %9, align 8, !tbaa !21
  %35 = load ptr, ptr %4, align 8, !tbaa !25
  %36 = getelementptr inbounds nuw %struct.gcm128_context, ptr %35, i32 0, i32 5
  %37 = getelementptr inbounds [2 x i64], ptr %36, i64 0, i64 0
  store i64 %34, ptr %37, align 8, !tbaa !30
  call void @llvm.lifetime.start.p0(i64 8, ptr %10) #5
  %38 = load ptr, ptr %4, align 8, !tbaa !25
  %39 = getelementptr inbounds nuw %struct.gcm128_context, ptr %38, i32 0, i32 5
  %40 = getelementptr inbounds [2 x i64], ptr %39, i64 0, i64 1
  %41 = load i64, ptr %40, align 8, !tbaa !30
  store i64 %41, ptr %10, align 8, !tbaa !21
  %42 = load i64, ptr %10, align 8, !tbaa !21
  %43 = call i64 asm "bswapq $0", "=r,0,~{dirflag},~{fpsr},~{flags}"(i64 %42) #6, !srcloc !32
  store i64 %43, ptr %10, align 8, !tbaa !21
  %44 = load i64, ptr %10, align 8, !tbaa !21
  store i64 %44, ptr %11, align 8, !tbaa !21
  call void @llvm.lifetime.end.p0(i64 8, ptr %10) #5
  %45 = load i64, ptr %11, align 8, !tbaa !21
  %46 = load ptr, ptr %4, align 8, !tbaa !25
  %47 = getelementptr inbounds nuw %struct.gcm128_context, ptr %46, i32 0, i32 5
  %48 = getelementptr inbounds [2 x i64], ptr %47, i64 0, i64 1
  store i64 %45, ptr %48, align 8, !tbaa !30
  %49 = load ptr, ptr %4, align 8, !tbaa !25
  %50 = getelementptr inbounds nuw %struct.gcm128_context, ptr %49, i32 0, i32 7
  call void @gcm_get_funcs(ptr noundef %50)
  %51 = load ptr, ptr %4, align 8, !tbaa !25
  %52 = getelementptr inbounds nuw %struct.gcm128_context, ptr %51, i32 0, i32 7
  %53 = getelementptr inbounds nuw %struct.gcm_funcs_st, ptr %52, i32 0, i32 0
  %54 = load ptr, ptr %53, align 8, !tbaa !33
  %55 = load ptr, ptr %4, align 8, !tbaa !25
  %56 = getelementptr inbounds nuw %struct.gcm128_context, ptr %55, i32 0, i32 6
  %57 = getelementptr inbounds [16 x %struct.u128], ptr %56, i64 0, i64 0
  %58 = load ptr, ptr %4, align 8, !tbaa !25
  %59 = getelementptr inbounds nuw %struct.gcm128_context, ptr %58, i32 0, i32 5
  %60 = getelementptr inbounds [2 x i64], ptr %59, i64 0, i64 0
  call void %54(ptr noundef %57, ptr noundef %60)
  call void @llvm.lifetime.end.p0(i64 4, ptr %7) #5
  ret void
}