; Function Attrs: nounwind uwtable
define void @CRYPTO_gcm128_init(ptr noundef initializes((0, 448)) %0, ptr noundef %1, ptr noundef %2) local_unnamed_addr #0 {
  tail call void @llvm.memset.p0.i64(ptr noundef nonnull align 8 dereferenceable(448) %0, i8 0, i64 448, i1 false)
  %4 = getelementptr inbounds nuw i8, ptr %0, i64 384
  store ptr %2, ptr %4, align 8, !tbaa !7
  %5 = getelementptr inbounds nuw i8, ptr %0, i64 392
  store ptr %1, ptr %5, align 8, !tbaa !11
  %6 = getelementptr inbounds nuw i8, ptr %0, i64 80
  tail call void %2(ptr noundef nonnull %6, ptr noundef nonnull %6, ptr noundef %1) #6
  %7 = load i64, ptr %6, align 8, !tbaa !12
  %8 = tail call i64 asm "bswapq $0", "=r,0,~{dirflag},~{fpsr},~{flags}"(i64 %7) #7, !srcloc !13
  store i64 %8, ptr %6, align 8, !tbaa !12
  %9 = getelementptr inbounds nuw i8, ptr %0, i64 88
  %10 = load i64, ptr %9, align 8, !tbaa !12
  %11 = tail call i64 asm "bswapq $0", "=r,0,~{dirflag},~{fpsr},~{flags}"(i64 %10) #7, !srcloc !14
  store i64 %11, ptr %9, align 8, !tbaa !12
  %12 = getelementptr inbounds nuw i8, ptr %0, i64 352
  store ptr @gcm_init_4bit, ptr %12, align 8, !tbaa !15
  %13 = load i32, ptr getelementptr inbounds nuw (i8, ptr @OPENSSL_ia32cap_P, i64 4), align 4, !tbaa !3
  %14 = and i32 %13, 2
  %.not.i = icmp eq i32 %14, 0
  br i1 %.not.i, label %gcm_get_funcs.exit, label %.sink.split.i

.sink.split.i:                                    ; preds = %3
  %15 = and i32 %13, 272629760
  %16 = icmp eq i32 %15, 272629760
  %gcm_init_avx.gcm_init_clmul.i = select i1 %16, ptr @gcm_init_avx, ptr @gcm_init_clmul
  %gcm_gmult_avx.gcm_gmult_clmul.i = select i1 %16, ptr @gcm_gmult_avx, ptr @gcm_gmult_clmul
  %gcm_ghash_avx.gcm_ghash_clmul.i = select i1 %16, ptr @gcm_ghash_avx, ptr @gcm_ghash_clmul
  store ptr %gcm_init_avx.gcm_init_clmul.i, ptr %12, align 8, !tbaa !15
  br label %gcm_get_funcs.exit

gcm_get_funcs.exit:                               ; preds = %3, %.sink.split.i
  %17 = phi ptr [ @gcm_init_4bit, %3 ], [ %gcm_init_avx.gcm_init_clmul.i, %.sink.split.i ]
  %gcm_gmult_avx.sink.i = phi ptr [ @gcm_gmult_4bit, %3 ], [ %gcm_gmult_avx.gcm_gmult_clmul.i, %.sink.split.i ]
  %gcm_ghash_avx.sink.i = phi ptr [ @gcm_ghash_4bit, %3 ], [ %gcm_ghash_avx.gcm_ghash_clmul.i, %.sink.split.i ]
  %18 = getelementptr inbounds nuw i8, ptr %0, i64 360
  %19 = getelementptr inbounds nuw i8, ptr %0, i64 368
  store ptr %gcm_gmult_avx.sink.i, ptr %19, align 8, !tbaa !16
  store ptr %gcm_ghash_avx.sink.i, ptr %18, align 8, !tbaa !17
  %20 = getelementptr inbounds nuw i8, ptr %0, i64 96
  tail call void %17(ptr noundef nonnull %20, ptr noundef nonnull %6) #6
  ret void
}